target datalayout = "e-m:e-p270:32:32-p271:32:32-p272:64:64-i64:64-i128:128-f80:128-n8:16:32:64-S128"
target triple = "x86_64-unknown-linux-gnu"

%struct.malloc_mutex_s = type { %union.anon }
%union.anon = type { %struct.anon.1 }
%struct.anon.1 = type { %struct.mutex_prof_data_t, %union.pthread_mutex_t, %struct.atomic_b_t }
%struct.mutex_prof_data_t = type { %struct.nstime_t, %struct.nstime_t, i64, i64, i32, %struct.atomic_u32_t, i64, ptr, i64 }
%struct.nstime_t = type { i64 }
%struct.atomic_u32_t = type { i32 }
%union.pthread_mutex_t = type { %struct.__pthread_mutex_s }
%struct.__pthread_mutex_s = type { i32, i32, i32, i32, i32, i16, i16, %struct.__pthread_internal_list }
%struct.__pthread_internal_list = type { ptr, ptr }
%struct.atomic_b_t = type { i8 }
%struct.atomic_zd_t = type { i64 }
%struct.hpa_shard_opts_s = type { i64, i64, i32, i8, i64, i64 }
%struct.sec_opts_s = type { i64, i64, i64, i64, i64 }
%struct.arena_s = type { [2 x %struct.atomic_u_t], %struct.atomic_u_t, ptr, %struct.arena_stats_s, %struct.anon, %struct.anon.0, %struct.malloc_mutex_s, %struct.atomic_u_t, %struct.edata_list_active_t, %struct.malloc_mutex_s, %struct.pa_shard_s, i32, ptr, %struct.nstime_t, [0 x %struct.bin_s] }
%struct.arena_stats_s = type { i64, i64, i64, i64, %struct.atomic_zu_t, i64, i64, i64, i64, i64, i64, %struct.pa_shard_stats_s, i64, i64, [12 x %struct.mutex_prof_data_t], [196 x %struct.arena_stats_large_s], %struct.nstime_t }
%struct.atomic_zu_t = type { i64 }
%struct.pa_shard_stats_s = type { i64, %struct.pac_stats_s }
%struct.pac_stats_s = type { %struct.pac_decay_stats_s, %struct.pac_decay_stats_s, i64, %struct.atomic_zu_t, %struct.atomic_zu_t }
%struct.pac_decay_stats_s = type { %struct.locked_u64_s, %struct.locked_u64_s, %struct.locked_u64_s }
%struct.locked_u64_s = type { %struct.atomic_u64_t }
%struct.atomic_u64_t = type { i64 }
%struct.arena_stats_large_s = type { %struct.locked_u64_s, %struct.locked_u64_s, %struct.locked_u64_s, %struct.locked_u64_s, %struct.locked_u64_s, i64 }
%struct.anon = type { ptr }
%struct.anon.0 = type { ptr }
%struct.atomic_u_t = type { i32 }
%struct.edata_list_active_t = type { %struct.anon.3 }
%struct.anon.3 = type { ptr }
%struct.pa_shard_s = type { ptr, %struct.atomic_zu_t, %struct.atomic_b_t, i8, %struct.pac_s, %struct.sec_s, %struct.hpa_shard_s, %struct.edata_cache_s, i32, ptr, ptr, ptr, ptr }
%struct.pac_s = type { %struct.pai_s, %struct.ecache_s, %struct.ecache_s, %struct.ecache_s, ptr, ptr, ptr, %struct.exp_grow_s, %struct.malloc_mutex_s, %struct.san_bump_alloc_s, %struct.atomic_zu_t, %struct.decay_s, %struct.decay_s, ptr, ptr, %struct.atomic_zu_t }
%struct.pai_s = type { ptr, ptr, ptr, ptr, ptr, ptr, ptr }
%struct.ecache_s = type { %struct.malloc_mutex_s, %struct.eset_s, %struct.eset_s, i32, i32, i8 }
%struct.eset_s = type { [4 x i64], [200 x %struct.eset_bin_s], [200 x %struct.eset_bin_stats_s], %struct.edata_list_inactive_t, %struct.atomic_zu_t, i32 }
%struct.eset_bin_s = type { %struct.edata_heap_t, %struct.edata_cmp_summary_s }
%struct.edata_heap_t = type { %struct.ph_s }
%struct.ph_s = type { ptr, i64 }
%struct.edata_cmp_summary_s = type { i64, i64 }
%struct.eset_bin_stats_s = type { %struct.atomic_zu_t, %struct.atomic_zu_t }
%struct.edata_list_inactive_t = type { %struct.anon.4 }
%struct.anon.4 = type { ptr }
%struct.exp_grow_s = type { i32, i32 }
%struct.san_bump_alloc_s = type { %struct.malloc_mutex_s, ptr }
%struct.decay_s = type { %struct.malloc_mutex_s, i8, %struct.atomic_zd_t, %struct.nstime_t, %struct.nstime_t, i64, %struct.nstime_t, i64, i64, [200 x i64], i64 }
%struct.sec_s = type { %struct.pai_s, ptr, %struct.sec_opts_s, ptr, i32 }
%struct.hpa_shard_s = type { %struct.pai_s, ptr, %struct.malloc_mutex_s, %struct.malloc_mutex_s, ptr, %struct.edata_cache_fast_s, %struct.psset_s, i64, i32, ptr, %struct.hpa_shard_opts_s, i64, %struct.hpa_shard_nonderived_stats_s, %struct.nstime_t }
%struct.edata_cache_fast_s = type { %struct.edata_list_inactive_t, ptr, i8 }
%struct.psset_s = type { [64 x %struct.hpdata_age_heap_t], [1 x i64], %struct.psset_bin_stats_s, %struct.psset_stats_s, %struct.hpdata_empty_list_t, [128 x %struct.hpdata_purge_list_t], [2 x i64], %struct.hpdata_hugify_list_t }
%struct.hpdata_age_heap_t = type { %struct.ph_s }
%struct.psset_bin_stats_s = type { i64, i64, i64 }
%struct.psset_stats_s = type { [64 x [2 x %struct.psset_bin_stats_s]], [2 x %struct.psset_bin_stats_s], [2 x %struct.psset_bin_stats_s] }
%struct.hpdata_empty_list_t = type { %struct.anon.5 }
%struct.anon.5 = type { ptr }
%struct.hpdata_purge_list_t = type { %struct.anon.6 }
%struct.anon.6 = type { ptr }
%struct.hpdata_hugify_list_t = type { %struct.anon.7 }
%struct.anon.7 = type { ptr }
%struct.hpa_shard_nonderived_stats_s = type { i64, i64, i64, i64 }
%struct.edata_cache_s = type { %struct.edata_avail_t, %struct.atomic_zu_t, %struct.malloc_mutex_s, ptr }
%struct.edata_avail_t = type { %struct.ph_s }
%struct.bin_s = type { %struct.malloc_mutex_s, %struct.bin_stats_s, ptr, %struct.edata_heap_t, %struct.edata_list_active_t }
%struct.bin_stats_s = type { i64, i64, i64, i64, i64, i64, i64, i64, i64, i64 }
%struct.edata_s = type { i64, ptr, %union.anon.11, ptr, i64, %union.anon.12, %union.anon.15 }
%union.anon.11 = type { i64 }
%union.anon.12 = type { %union.anon.14 }
%union.anon.14 = type { %struct.edata_heap_link_t }
%struct.edata_heap_link_t = type { %struct.phn_link_s }
%struct.phn_link_s = type { ptr, ptr, ptr }
%union.anon.15 = type { %struct.slab_data_s }
%struct.slab_data_s = type { [8 x i64] }

@sz_index2size_tab = external global [235 x i64], align 16
@sz_size2index_tab = external global [0 x i8], align 1

; Function Attrs: nounwind uwtable
define internal i32 @fls_lu(i64 noundef %x) #0 {
entry:
  %b.addr.i = alloca i8, align 1
  %x.addr = alloca i64, align 8
  store i64 %x, ptr %x.addr, align 8
  %0 = load i64, ptr %x.addr, align 8
  %cmp = icmp ne i64 %0, 0
  %frombool.i = zext i1 %cmp to i8
  store i8 %frombool.i, ptr %b.addr.i, align 1
  %1 = load i8, ptr %b.addr.i, align 1
  %tobool.i = trunc i8 %1 to i1
  br i1 %tobool.i, label %util_assume.exit, label %if.then.i

if.then.i:                                        ; preds = %entry
  unreachable

util_assume.exit:                                 ; preds = %entry
  %2 = load i64, ptr %x.addr, align 8
  %3 = call i64 @llvm.ctlz.i64(i64 %2, i1 true)
  %cast = trunc i64 %3 to i32
  %conv = sext i32 %cast to i64
  %xor = xor i64 63, %conv
  %conv1 = trunc i64 %xor to i32
  ret i32 %conv1
}

; Function Attrs: nounwind uwtable
define internal i32 @fls_u64(i64 noundef %x) #0 {
entry:
  %x.addr = alloca i64, align 8
  store i64 %x, ptr %x.addr, align 8
  %0 = load i64, ptr %x.addr, align 8
  %call = call i32 @fls_lu(i64 noundef %0)
  ret i32 %call
}

; Function Attrs: nounwind uwtable
define internal i32 @lg_floor(i64 noundef %x) #0 {
entry:
  %b.addr.i = alloca i8, align 1
  %x.addr = alloca i64, align 8
  store i64 %x, ptr %x.addr, align 8
  %0 = load i64, ptr %x.addr, align 8
  %cmp = icmp ne i64 %0, 0
  %frombool.i = zext i1 %cmp to i8
  store i8 %frombool.i, ptr %b.addr.i, align 1
  %1 = load i8, ptr %b.addr.i, align 1
  %tobool.i = trunc i8 %1 to i1
  br i1 %tobool.i, label %util_assume.exit, label %if.then.i

if.then.i:                                        ; preds = %entry
  unreachable

util_assume.exit:                                 ; preds = %entry
  %2 = load i64, ptr %x.addr, align 8
  %call = call i32 @fls_u64(i64 noundef %2)
  ret i32 %call
}

; Function Attrs: nounwind uwtable
define internal i32 @edata_szind_get_maybe_invalid(ptr noundef %edata) #0 {
entry:
  %edata.addr = alloca ptr, align 8
  %szind = alloca i32, align 4
  store ptr %edata, ptr %edata.addr, align 8
  %0 = load ptr, ptr %edata.addr, align 8
  %e_bits = getelementptr inbounds %struct.edata_s, ptr %0, i32 0, i32 0
  %1 = load i64, ptr %e_bits, align 8
  %and = and i64 %1, 267386880
  %shr = lshr i64 %and, 20
  %conv = trunc i64 %shr to i32
  store i32 %conv, ptr %szind, align 4
  br label %do.body

do.body:                                          ; preds = %entry
  br label %do.end

do.end:                                           ; preds = %do.body
  %2 = load i32, ptr %szind, align 4
  ret i32 %2
}

; Function Attrs: nounwind uwtable
define internal void @locked_inc_u64(ptr noundef %tsdn, ptr noundef %mtx, ptr noundef %p, i64 noundef %x) #0 {
entry:
  %retval.i.i = alloca i32, align 4
  %mo.addr.i.i = alloca i32, align 4
  %a.addr.i = alloca ptr, align 8
  %val.addr.i = alloca i64, align 8
  %mo.addr.i = alloca i32, align 4
  %.atomictmp.i = alloca i64, align 8
  %atomic-temp.i = alloca i64, align 8
  %tsdn.addr = alloca ptr, align 8
  %mtx.addr = alloca ptr, align 8
  %p.addr = alloca ptr, align 8
  %x.addr = alloca i64, align 8
  store ptr %tsdn, ptr %tsdn.addr, align 8
  store ptr %mtx, ptr %mtx.addr, align 8
  store ptr %p, ptr %p.addr, align 8
  store i64 %x, ptr %x.addr, align 8
  br label %do.body

do.body:                                          ; preds = %entry
  br label %do.end

do.end:                                           ; preds = %do.body
  %0 = load ptr, ptr %p.addr, align 8
  %val = getelementptr inbounds %struct.locked_u64_s, ptr %0, i32 0, i32 0
  %1 = load i64, ptr %x.addr, align 8
  store ptr %val, ptr %a.addr.i, align 8
  store i64 %1, ptr %val.addr.i, align 8
  store i32 0, ptr %mo.addr.i, align 4
  %2 = load ptr, ptr %a.addr.i, align 8
  %3 = load i32, ptr %mo.addr.i, align 4
  store i32 %3, ptr %mo.addr.i.i, align 4
  %4 = load i32, ptr %mo.addr.i.i, align 4
  switch i32 %4, label %sw.epilog.i.i [
    i32 0, label %sw.bb.i.i
    i32 1, label %sw.bb1.i.i
    i32 2, label %sw.bb2.i.i
    i32 3, label %sw.bb3.i.i
    i32 4, label %sw.bb4.i.i
  ]

sw.bb.i.i:                                        ; preds = %do.end
  store i32 0, ptr %retval.i.i, align 4
  br label %atomic_enum_to_builtin.exit.i

sw.bb1.i.i:                                       ; preds = %do.end
  store i32 2, ptr %retval.i.i, align 4
  br label %atomic_enum_to_builtin.exit.i

sw.bb2.i.i:                                       ; preds = %do.end
  store i32 3, ptr %retval.i.i, align 4
  br label %atomic_enum_to_builtin.exit.i

sw.bb3.i.i:                                       ; preds = %do.end
  store i32 4, ptr %retval.i.i, align 4
  br label %atomic_enum_to_builtin.exit.i

sw.bb4.i.i:                                       ; preds = %do.end
  store i32 5, ptr %retval.i.i, align 4
  br label %atomic_enum_to_builtin.exit.i

sw.epilog.i.i:                                    ; preds = %do.end
  unreachable

atomic_enum_to_builtin.exit.i:                    ; preds = %sw.bb4.i.i, %sw.bb3.i.i, %sw.bb2.i.i, %sw.bb1.i.i, %sw.bb.i.i
  %5 = load i32, ptr %retval.i.i, align 4
  %6 = load i64, ptr %val.addr.i, align 8
  store i64 %6, ptr %.atomictmp.i, align 8
  switch i32 %5, label %monotonic.i [
    i32 1, label %acquire.i
    i32 2, label %acquire.i
    i32 3, label %release.i
    i32 4, label %acqrel.i
    i32 5, label %seqcst.i
  ]

monotonic.i:                                      ; preds = %atomic_enum_to_builtin.exit.i
  %7 = load i64, ptr %.atomictmp.i, align 8
  %8 = atomicrmw add ptr %2, i64 %7 monotonic, align 8
  store i64 %8, ptr %atomic-temp.i, align 8
  br label %atomic_fetch_add_u64.exit

acquire.i:                                        ; preds = %atomic_enum_to_builtin.exit.i, %atomic_enum_to_builtin.exit.i
  %9 = load i64, ptr %.atomictmp.i, align 8
  %10 = atomicrmw add ptr %2, i64 %9 acquire, align 8
  store i64 %10, ptr %atomic-temp.i, align 8
  br label %atomic_fetch_add_u64.exit

release.i:                                        ; preds = %atomic_enum_to_builtin.exit.i
  %11 = load i64, ptr %.atomictmp.i, align 8
  %12 = atomicrmw add ptr %2, i64 %11 release, align 8
  store i64 %12, ptr %atomic-temp.i, align 8
  br label %atomic_fetch_add_u64.exit

acqrel.i:                                         ; preds = %atomic_enum_to_builtin.exit.i
  %13 = load i64, ptr %.atomictmp.i, align 8
  %14 = atomicrmw add ptr %2, i64 %13 acq_rel, align 8
  store i64 %14, ptr %atomic-temp.i, align 8
  br label %atomic_fetch_add_u64.exit

seqcst.i:                                         ; preds = %atomic_enum_to_builtin.exit.i
  %15 = load i64, ptr %.atomictmp.i, align 8
  %16 = atomicrmw add ptr %2, i64 %15 seq_cst, align 8
  store i64 %16, ptr %atomic-temp.i, align 8
  br label %atomic_fetch_add_u64.exit

atomic_fetch_add_u64.exit:                        ; preds = %seqcst.i, %acqrel.i, %release.i, %acquire.i, %monotonic.i
  ret void
}

; Function Attrs: nounwind uwtable
define internal i32 @sz_size2index_compute(i64 noundef %size) #0 {
entry:
  %retval = alloca i32, align 4
  %size.addr = alloca i64, align 8
  %x = alloca i32, align 4
  %shift = alloca i32, align 4
  %grp = alloca i32, align 4
  %lg_delta = alloca i32, align 4
  %delta_inverse_mask = alloca i64, align 8
  %mod = alloca i32, align 4
  %index = alloca i32, align 4
  store i64 %size, ptr %size.addr, align 8
  %0 = load i64, ptr %size.addr, align 8
  %cmp = icmp ugt i64 %0, 8070450532247928832
  %lnot = xor i1 %cmp, true
  %lnot1 = xor i1 %lnot, true
  %lnot.ext = zext i1 %lnot1 to i32
  %conv = sext i32 %lnot.ext to i64
  %tobool = icmp ne i64 %conv, 0
  br i1 %tobool, label %if.then, label %if.end

if.then:                                          ; preds = %entry
  store i32 235, ptr %retval, align 4
  br label %return

if.end:                                           ; preds = %entry
  %1 = load i64, ptr %size.addr, align 8
  %cmp2 = icmp eq i64 %1, 0
  br i1 %cmp2, label %if.then4, label %if.end5

if.then4:                                         ; preds = %if.end
  store i32 0, ptr %retval, align 4
  br label %return

if.end5:                                          ; preds = %if.end
  %2 = load i64, ptr %size.addr, align 8
  %shl = shl i64 %2, 1
  %sub = sub i64 %shl, 1
  %call = call i32 @lg_floor(i64 noundef %sub)
  store i32 %call, ptr %x, align 4
  %3 = load i32, ptr %x, align 4
  %cmp6 = icmp ult i32 %3, 5
  br i1 %cmp6, label %cond.true, label %cond.false

cond.true:                                        ; preds = %if.end5
  br label %cond.end

cond.false:                                       ; preds = %if.end5
  %4 = load i32, ptr %x, align 4
  %sub8 = sub i32 %4, 5
  br label %cond.end

cond.end:                                         ; preds = %cond.false, %cond.true
  %cond = phi i32 [ 0, %cond.true ], [ %sub8, %cond.false ]
  store i32 %cond, ptr %shift, align 4
  %5 = load i32, ptr %shift, align 4
  %shl9 = shl i32 %5, 2
  store i32 %shl9, ptr %grp, align 4
  %6 = load i32, ptr %x, align 4
  %cmp10 = icmp ult i32 %6, 6
  br i1 %cmp10, label %cond.true12, label %cond.false13

cond.true12:                                      ; preds = %cond.end
  br label %cond.end16

cond.false13:                                     ; preds = %cond.end
  %7 = load i32, ptr %x, align 4
  %sub14 = sub i32 %7, 2
  %sub15 = sub i32 %sub14, 1
  br label %cond.end16

cond.end16:                                       ; preds = %cond.false13, %cond.true12
  %cond17 = phi i32 [ 3, %cond.true12 ], [ %sub15, %cond.false13 ]
  store i32 %cond17, ptr %lg_delta, align 4
  %8 = load i32, ptr %lg_delta, align 4
  %sh_prom = zext i32 %8 to i64
  %shl18 = shl i64 -1, %sh_prom
  store i64 %shl18, ptr %delta_inverse_mask, align 8
  %9 = load i64, ptr %size.addr, align 8
  %sub19 = sub i64 %9, 1
  %10 = load i64, ptr %delta_inverse_mask, align 8
  %and = and i64 %sub19, %10
  %11 = load i32, ptr %lg_delta, align 4
  %sh_prom20 = zext i32 %11 to i64
  %shr = lshr i64 %and, %sh_prom20
  %and21 = and i64 %shr, 3
  %conv22 = trunc i64 %and21 to i32
  store i32 %conv22, ptr %mod, align 4
  %12 = load i32, ptr %grp, align 4
  %add = add i32 0, %12
  %13 = load i32, ptr %mod, align 4
  %add23 = add i32 %add, %13
  store i32 %add23, ptr %index, align 4
  %14 = load i32, ptr %index, align 4
  store i32 %14, ptr %retval, align 4
  br label %return

return:                                           ; preds = %cond.end16, %if.then4, %if.then
  %15 = load i32, ptr %retval, align 4
  ret i32 %15
}

; Function Attrs: nounwind uwtable
define internal i32 @edata_szind_get(ptr noundef %edata) #0 {
entry:
  %edata.addr = alloca ptr, align 8
  %szind = alloca i32, align 4
  store ptr %edata, ptr %edata.addr, align 8
  %0 = load ptr, ptr %edata.addr, align 8
  %call = call i32 @edata_szind_get_maybe_invalid(ptr noundef %0)
  store i32 %call, ptr %szind, align 4
  br label %do.body

do.body:                                          ; preds = %entry
  br label %do.end

do.end:                                           ; preds = %do.body
  %1 = load i32, ptr %szind, align 4
  ret i32 %1
}

; Function Attrs: nounwind uwtable
define internal void @arena_large_dalloc_stats_update(ptr noundef %tsdn, ptr noundef %arena, i64 noundef %usize) #0 {
entry:
  %size.addr.i7 = alloca i64, align 8
  %size.addr.i5 = alloca i64, align 8
  %ret.i = alloca i32, align 4
  %retval.i = alloca i32, align 4
  %size.addr.i = alloca i64, align 8
  %tsdn.addr = alloca ptr, align 8
  %arena.addr = alloca ptr, align 8
  %usize.addr = alloca i64, align 8
  %index = alloca i32, align 4
  %hindex = alloca i32, align 4
  store ptr %tsdn, ptr %tsdn.addr, align 8
  store ptr %arena, ptr %arena.addr, align 8
  store i64 %usize, ptr %usize.addr, align 8
  br label %do.body

do.body:                                          ; preds = %entry
  br label %do.end

do.end:                                           ; preds = %do.body
  %0 = load i64, ptr %usize.addr, align 8
  %cmp = icmp ult i64 %0, 16384
  br i1 %cmp, label %if.then, label %if.end

if.then:                                          ; preds = %do.end
  store i64 16384, ptr %usize.addr, align 8
  br label %if.end

if.end:                                           ; preds = %if.then, %do.end
  %1 = load i64, ptr %usize.addr, align 8
  store i64 %1, ptr %size.addr.i, align 8
  %2 = load i64, ptr %size.addr.i, align 8
  %cmp.i = icmp ule i64 %2, 4096
  br i1 %cmp.i, label %if.then.i, label %if.end.i

if.then.i:                                        ; preds = %if.end
  %3 = load i64, ptr %size.addr.i, align 8
  store i64 %3, ptr %size.addr.i5, align 8
  %4 = load i64, ptr %size.addr.i5, align 8
  store i64 %4, ptr %size.addr.i7, align 8
  %5 = load i64, ptr %size.addr.i7, align 8
  %add.i = add i64 %5, 8
  %sub.i = sub i64 %add.i, 1
  %shr.i = lshr i64 %sub.i, 3
  %arrayidx.i = getelementptr inbounds [0 x i8], ptr @sz_size2index_tab, i64 0, i64 %shr.i
  %6 = load i8, ptr %arrayidx.i, align 1
  %conv.i8 = zext i8 %6 to i32
  store i32 %conv.i8, ptr %ret.i, align 4
  %7 = load i32, ptr %ret.i, align 4
  store i32 %7, ptr %retval.i, align 4
  br label %sz_size2index.exit

if.end.i:                                         ; preds = %if.end
  %8 = load i64, ptr %size.addr.i, align 8
  %call2.i = call i32 @sz_size2index_compute(i64 noundef %8)
  store i32 %call2.i, ptr %retval.i, align 4
  br label %sz_size2index.exit

sz_size2index.exit:                               ; preds = %if.end.i, %if.then.i
  %9 = load i32, ptr %retval.i, align 4
  store i32 %9, ptr %index, align 4
  %10 = load i32, ptr %index, align 4
  %conv = zext i32 %10 to i64
  %cmp1 = icmp uge i64 %conv, 39
  br i1 %cmp1, label %cond.true, label %cond.false

cond.true:                                        ; preds = %sz_size2index.exit
  %11 = load i32, ptr %index, align 4
  %conv3 = zext i32 %11 to i64
  %sub = sub i64 %conv3, 39
  br label %cond.end

cond.false:                                       ; preds = %sz_size2index.exit
  br label %cond.end

cond.end:                                         ; preds = %cond.false, %cond.true
  %cond = phi i64 [ %sub, %cond.true ], [ 0, %cond.false ]
  %conv4 = trunc i64 %cond to i32
  store i32 %conv4, ptr %hindex, align 4
  %12 = load ptr, ptr %tsdn.addr, align 8
  %13 = load ptr, ptr %arena.addr, align 8
  %stats = getelementptr inbounds %struct.arena_s, ptr %13, i32 0, i32 3
  %lstats = getelementptr inbounds %struct.arena_stats_s, ptr %stats, i32 0, i32 15
  %14 = load i32, ptr %hindex, align 4
  %idxprom = zext i32 %14 to i64
  %arrayidx = getelementptr inbounds [196 x %struct.arena_stats_large_s], ptr %lstats, i64 0, i64 %idxprom
  %ndalloc = getelementptr inbounds %struct.arena_stats_large_s, ptr %arrayidx, i32 0, i32 1
  call void @locked_inc_u64(ptr noundef %12, ptr noundef null, ptr noundef %ndalloc, i64 noundef 1)
  ret void
}

; Function Attrs: nounwind uwtable
define internal i64 @edata_usize_get(ptr noundef %edata) #0 {
entry:
  %index.addr.i4 = alloca i32, align 4
  %index.addr.i2 = alloca i32, align 4
  %ret.i = alloca i64, align 8
  %index.addr.i = alloca i32, align 4
  %edata.addr = alloca ptr, align 8
  store ptr %edata, ptr %edata.addr, align 8
  %0 = load ptr, ptr %edata.addr, align 8
  %call = call i32 @edata_szind_get(ptr noundef %0)
  store i32 %call, ptr %index.addr.i, align 4
  %1 = load i32, ptr %index.addr.i, align 4
  store i32 %1, ptr %index.addr.i2, align 4
  %2 = load i32, ptr %index.addr.i2, align 4
  store i32 %2, ptr %index.addr.i4, align 4
  %3 = load i32, ptr %index.addr.i4, align 4
  %idxprom.i = zext i32 %3 to i64
  %arrayidx.i = getelementptr inbounds [235 x i64], ptr @sz_index2size_tab, i64 0, i64 %idxprom.i
  %4 = load i64, ptr %arrayidx.i, align 8
  store i64 %4, ptr %ret.i, align 8
  %5 = load i64, ptr %ret.i, align 8
  ret i64 %5
}

; Function Attrs: nounwind uwtable
define hidden void @arena_extent_dalloc_large_prep(ptr noundef %tsdn, ptr noundef %arena, ptr noundef %edata) #0 {
entry:
  %tsdn.addr = alloca ptr, align 8
  %arena.addr = alloca ptr, align 8
  %edata.addr = alloca ptr, align 8
  store ptr %tsdn, ptr %tsdn.addr, align 8
  store ptr %arena, ptr %arena.addr, align 8
  store ptr %edata, ptr %edata.addr, align 8
  %0 = load ptr, ptr %tsdn.addr, align 8
  %1 = load ptr, ptr %arena.addr, align 8
  %2 = load ptr, ptr %edata.addr, align 8
  %call = call i64 @edata_usize_get(ptr noundef %2)
  call void @arena_large_dalloc_stats_update(ptr noundef %0, ptr noundef %1, i64 noundef %call)
  ret void
}