; Function Attrs: mustprogress nofree norecurse nounwind willreturn memory(read, argmem: readwrite, inaccessiblemem: none) uwtable
define hidden void @arena_extent_dalloc_large_prep(ptr nocapture noundef readnone %tsdn, ptr nocapture noundef %arena, ptr nocapture noundef readonly %edata) local_unnamed_addr #3 {
entry:
  %edata.val = load i64, ptr %edata, align 8
  %0 = lshr i64 %edata.val, 20
  %conv.i.i.i = and i64 %0, 255
  %arrayidx.i.i = getelementptr inbounds [235 x i64], ptr @sz_index2size_tab, i64 0, i64 %conv.i.i.i
  %1 = load i64, ptr %arrayidx.i.i, align 8
  %cmp.i.i = icmp ugt i64 %1, 8070450532247928832
  br i1 %cmp.i.i, label %arena_large_dalloc_stats_update.exit, label %sz_size2index_compute.exit.i

sz_size2index_compute.exit.i:                     ; preds = %entry
  %spec.store.select.i = tail call i64 @llvm.umax.i64(i64 %1, i64 16384)
  %shl.i.i = shl nuw i64 %spec.store.select.i, 1
  %sub.i.i = add i64 %shl.i.i, -1
  %2 = tail call i64 @llvm.ctlz.i64(i64 %sub.i.i, i1 true), !range !10
  %3 = trunc i64 %2 to i32
  %4 = shl nuw nsw i32 %3, 2
  %sub15.i.i = sub nuw nsw i64 60, %2
  %shl18.i.i = shl nsw i64 -1, %sub15.i.i
  %sub19.i.i = add nsw i64 %spec.store.select.i, -1
  %and.i.i = and i64 %shl18.i.i, %sub19.i.i
  %shr.i.i = lshr i64 %and.i.i, %sub15.i.i
  %5 = trunc i64 %shr.i.i to i32
  %conv22.i.i = and i32 %5, 3
  %reass.sub.i = sub nsw i32 %conv22.i.i, %4
  %reass.sub.fr.i = freeze i32 %reass.sub.i
  %6 = add i32 %reass.sub.fr.i, 193
  %cmp1.i = icmp ult i32 %6, -39
  %spec.select.i = select i1 %cmp1.i, i32 %6, i32 0
  %7 = zext i32 %spec.select.i to i64
  br label %arena_large_dalloc_stats_update.exit

arena_large_dalloc_stats_update.exit:             ; preds = %entry, %sz_size2index_compute.exit.i
  %idxprom.i = phi i64 [ 196, %entry ], [ %7, %sz_size2index_compute.exit.i ]
  %lstats.i = getelementptr inbounds i8, ptr %arena, i64 976
  %ndalloc.i = getelementptr inbounds [196 x %struct.arena_stats_large_s], ptr %lstats.i, i64 0, i64 %idxprom.i, i32 1
  %8 = atomicrmw add ptr %ndalloc.i, i64 1 monotonic, align 8
  ret void
}